; Function Attrs: mustprogress uwtable
define ptr @lean_big_usize_to_nat(i64 noundef %0) local_unnamed_addr #0 personality ptr @__gxx_personality_v0 {
  %2 = alloca %"class.lean::mpz", align 8
  %3 = icmp sgt i64 %0, -1
  br i1 %3, label %4, label %8

4:                                                ; preds = %1
  %5 = shl nuw i64 %0, 1
  %6 = or disjoint i64 %5, 1
  %7 = inttoptr i64 %6 to ptr
  br label %20

8:                                                ; preds = %1
  call void @llvm.lifetime.start.p0(i64 16, ptr nonnull %2) #40
  call void @_ZN4lean3mpzC1Em(ptr noundef nonnull align 8 dereferenceable(16) %2, i64 noundef %0)
  invoke void @lean_inc_heartbeat()
          to label %.noexc unwind label %18

.noexc:                                           ; preds = %8
  %9 = call noalias ptr @mi_malloc_small(i64 noundef 24) #40
  %10 = icmp eq ptr %9, null
  br i1 %10, label %11, label %_ZN4lean9alloc_mpzERKNS_3mpzE.exit.i

11:                                               ; preds = %.noexc
  invoke void @lean_internal_panic_out_of_memory() #43
          to label %.noexc6 unwind label %18

.noexc6:                                          ; preds = %11
  unreachable

_ZN4lean9alloc_mpzERKNS_3mpzE.exit.i:             ; preds = %.noexc
  %12 = getelementptr inbounds nuw i8, ptr %9, i64 4
  %13 = load i32, ptr %12, align 4
  %14 = and i32 %13, -65536
  %15 = or disjoint i32 %14, 24
  store i32 %15, ptr %12, align 4
  %16 = getelementptr inbounds nuw i8, ptr %9, i64 8
  invoke void @_ZN4lean3mpzC1ERKS0_(ptr noundef nonnull align 8 dereferenceable(16) %16, ptr noundef nonnull align 8 dereferenceable(16) %2)
          to label %17 unwind label %18

17:                                               ; preds = %_ZN4lean9alloc_mpzERKNS_3mpzE.exit.i
  store i32 1, ptr %9, align 4, !tbaa !23
  store i32 -100663272, ptr %12, align 4
  call void @_ZN4lean3mpzD1Ev(ptr noundef nonnull align 8 dereferenceable(16) %2) #40
  call void @llvm.lifetime.end.p0(i64 16, ptr nonnull %2) #40
  br label %20

18:                                               ; preds = %_ZN4lean9alloc_mpzERKNS_3mpzE.exit.i, %11, %8
  %19 = landingpad { ptr, i32 }
          cleanup
  call void @_ZN4lean3mpzD1Ev(ptr noundef nonnull align 8 dereferenceable(16) %2) #40
  call void @llvm.lifetime.end.p0(i64 16, ptr nonnull %2) #40
  resume { ptr, i32 } %19

20:                                               ; preds = %17, %4
  %.0 = phi ptr [ %7, %4 ], [ %9, %17 ]
  ret ptr %.0
}